target datalayout = "e-m:e-p270:32:32-p271:32:32-p272:64:64-i64:64-i128:128-f80:128-n8:16:32:64-S128"
target triple = "x86_64-pc-linux-gnu"

%struct.mat = type { [4 x %struct.vec] }
%struct.vec = type { double, double, double, double }

@Viewport = dso_local global %struct.mat zeroinitializer, align 8

; Function Attrs: mustprogress nounwind uwtable
define dso_local void @_Z8viewportiiii(i32 noundef %0, i32 noundef %1, i32 noundef %2, i32 noundef %3) #4 {
  %5 = alloca i32, align 4
  %6 = alloca i32, align 4
  %7 = alloca i32, align 4
  %8 = alloca i32, align 4
  %9 = alloca %struct.mat, align 8
  store i32 %0, ptr %5, align 4, !tbaa !5
  store i32 %1, ptr %6, align 4, !tbaa !5
  store i32 %2, ptr %7, align 4, !tbaa !5
  store i32 %3, ptr %8, align 4, !tbaa !5
  call void @llvm.lifetime.start.p0(i64 128, ptr %9) #3
  %10 = getelementptr inbounds nuw %struct.mat, ptr %9, i32 0, i32 0
  %11 = getelementptr inbounds nuw %struct.vec, ptr %10, i32 0, i32 0
  %12 = load i32, ptr %7, align 4, !tbaa !5
  %13 = sitofp i32 %12 to double
  %14 = fdiv double %13, 2.000000e+00
  store double %14, ptr %11, align 8, !tbaa !9
  %15 = getelementptr inbounds nuw %struct.vec, ptr %10, i32 0, i32 1
  store double 0.000000e+00, ptr %15, align 8, !tbaa !12
  %16 = getelementptr inbounds nuw %struct.vec, ptr %10, i32 0, i32 2
  store double 0.000000e+00, ptr %16, align 8, !tbaa !13
  %17 = getelementptr inbounds nuw %struct.vec, ptr %10, i32 0, i32 3
  %18 = load i32, ptr %5, align 4, !tbaa !5
  %19 = sitofp i32 %18 to double
  %20 = load i32, ptr %7, align 4, !tbaa !5
  %21 = sitofp i32 %20 to double
  %22 = fdiv double %21, 2.000000e+00
  %23 = fadd double %19, %22
  store double %23, ptr %17, align 8, !tbaa !14
  %24 = getelementptr inbounds %struct.vec, ptr %10, i64 1
  %25 = getelementptr inbounds nuw %struct.vec, ptr %24, i32 0, i32 0
  store double 0.000000e+00, ptr %25, align 8, !tbaa !9
  %26 = getelementptr inbounds nuw %struct.vec, ptr %24, i32 0, i32 1
  %27 = load i32, ptr %8, align 4, !tbaa !5
  %28 = sitofp i32 %27 to double
  %29 = fdiv double %28, 2.000000e+00
  store double %29, ptr %26, align 8, !tbaa !12
  %30 = getelementptr inbounds nuw %struct.vec, ptr %24, i32 0, i32 2
  store double 0.000000e+00, ptr %30, align 8, !tbaa !13
  %31 = getelementptr inbounds nuw %struct.vec, ptr %24, i32 0, i32 3
  %32 = load i32, ptr %6, align 4, !tbaa !5
  %33 = sitofp i32 %32 to double
  %34 = load i32, ptr %8, align 4, !tbaa !5
  %35 = sitofp i32 %34 to double
  %36 = fdiv double %35, 2.000000e+00
  %37 = fadd double %33, %36
  store double %37, ptr %31, align 8, !tbaa !14
  %38 = getelementptr inbounds %struct.vec, ptr %10, i64 2
  call void @llvm.memset.p0.i64(ptr align 8 %38, i8 0, i64 32, i1 false)
  %39 = getelementptr inbounds nuw %struct.vec, ptr %38, i32 0, i32 2
  store double 1.000000e+00, ptr %39, align 8, !tbaa !13
  %40 = getelementptr inbounds %struct.vec, ptr %10, i64 3
  call void @llvm.memset.p0.i64(ptr align 8 %40, i8 0, i64 32, i1 false)
  %41 = getelementptr inbounds nuw %struct.vec, ptr %40, i32 0, i32 3
  store double 1.000000e+00, ptr %41, align 8, !tbaa !14
  call void @llvm.memcpy.p0.p0.i64(ptr align 8 @Viewport, ptr align 8 %9, i64 128, i1 false), !tbaa.struct !15
  call void @llvm.lifetime.end.p0(i64 128, ptr %9) #3
  ret void
}