; Function Attrs: mustprogress nofree norecurse nosync nounwind willreturn memory(write, argmem: none, inaccessiblemem: none) uwtable
define dso_local void @_Z8viewportiiii(i32 noundef %0, i32 noundef %1, i32 noundef %2, i32 noundef %3) local_unnamed_addr #3 {
  %5 = sitofp i32 %2 to double
  %6 = fmul double %5, 5.000000e-01
  %7 = sitofp i32 %0 to double
  %8 = fadd double %6, %7
  %9 = sitofp i32 %3 to double
  %10 = fmul double %9, 5.000000e-01
  %11 = sitofp i32 %1 to double
  %12 = fadd double %10, %11
  store double %6, ptr @Viewport, align 8
  tail call void @llvm.memset.p0.i64(ptr noundef nonnull align 8 dereferenceable(16) getelementptr inbounds nuw (i8, ptr @Viewport, i64 8), i8 0, i64 16, i1 false)
  store double %8, ptr getelementptr inbounds nuw (i8, ptr @Viewport, i64 24), align 8
  store double 0.000000e+00, ptr getelementptr inbounds nuw (i8, ptr @Viewport, i64 32), align 8
  store double %10, ptr getelementptr inbounds nuw (i8, ptr @Viewport, i64 40), align 8
  store double 0.000000e+00, ptr getelementptr inbounds nuw (i8, ptr @Viewport, i64 48), align 8
  store double %12, ptr getelementptr inbounds nuw (i8, ptr @Viewport, i64 56), align 8
  tail call void @llvm.memset.p0.i64(ptr noundef nonnull align 8 dereferenceable(16) getelementptr inbounds nuw (i8, ptr @Viewport, i64 64), i8 0, i64 16, i1 false)
  store double 1.000000e+00, ptr getelementptr inbounds nuw (i8, ptr @Viewport, i64 80), align 8
  tail call void @llvm.memset.p0.i64(ptr noundef nonnull align 8 dereferenceable(32) getelementptr inbounds nuw (i8, ptr @Viewport, i64 88), i8 0, i64 32, i1 false)
  store double 1.000000e+00, ptr getelementptr inbounds nuw (i8, ptr @Viewport, i64 120), align 8, !tbaa !5
  ret void
}